target datalayout = "e-m:e-p270:32:32-p271:32:32-p272:64:64-i64:64-i128:128-f80:128-n8:16:32:64-S128"
target triple = "x86_64-pc-linux-gnu"

%struct.quic_sstream_st = type { %struct.ring_buf, %struct.ossl_list_st_uint_set, %struct.ossl_list_st_uint_set, i8 }
%struct.ring_buf = type { ptr, i64, i64, i64 }
%struct.ossl_list_st_uint_set = type { ptr, ptr, i64 }
%struct.uint_range_st = type { i64, i64 }

; Function Attrs: nounwind uwtable
define i32 @ossl_quic_sstream_mark_transmitted(ptr noundef %0, i64 noundef %1, i64 noundef %2) #0 {
  %4 = alloca i32, align 4
  %5 = alloca ptr, align 8
  %6 = alloca i64, align 8
  %7 = alloca i64, align 8
  %8 = alloca %struct.uint_range_st, align 8
  %9 = alloca i32, align 4
  store ptr %0, ptr %5, align 8, !tbaa !7
  store i64 %1, ptr %6, align 8, !tbaa !3
  store i64 %2, ptr %7, align 8, !tbaa !3
  call void @llvm.lifetime.start.p0(i64 16, ptr %8) #6
  %10 = load i64, ptr %6, align 8, !tbaa !3
  %11 = getelementptr inbounds nuw %struct.uint_range_st, ptr %8, i32 0, i32 0
  store i64 %10, ptr %11, align 8, !tbaa !51
  %12 = load i64, ptr %7, align 8, !tbaa !3
  %13 = getelementptr inbounds nuw %struct.uint_range_st, ptr %8, i32 0, i32 1
  store i64 %12, ptr %13, align 8, !tbaa !52
  %14 = load ptr, ptr %5, align 8, !tbaa !7
  %15 = getelementptr inbounds nuw %struct.quic_sstream_st, ptr %14, i32 0, i32 1
  %16 = call i32 @ossl_uint_set_remove(ptr noundef %15, ptr noundef %8)
  %17 = icmp ne i32 %16, 0
  br i1 %17, label %19, label %18

18:                                               ; preds = %3
  store i32 0, ptr %4, align 4
  store i32 1, ptr %9, align 4
  br label %20

19:                                               ; preds = %3
  store i32 1, ptr %4, align 4
  store i32 1, ptr %9, align 4
  br label %20

20:                                               ; preds = %19, %18
  call void @llvm.lifetime.end.p0(i64 16, ptr %8) #6
  %21 = load i32, ptr %4, align 4
  ret i32 %21
}