; Function Attrs: nounwind uwtable
define range(i32 0, 2) i32 @ossl_quic_sstream_mark_transmitted(ptr noundef %0, i64 noundef %1, i64 noundef %2) local_unnamed_addr #0 {
  %4 = alloca %struct.uint_range_st, align 8
  call void @llvm.lifetime.start.p0(i64 16, ptr nonnull %4) #12
  store i64 %1, ptr %4, align 8, !tbaa !33
  %5 = getelementptr inbounds nuw i8, ptr %4, i64 8
  store i64 %2, ptr %5, align 8, !tbaa !34
  %6 = getelementptr inbounds nuw i8, ptr %0, i64 32
  %7 = call i32 @ossl_uint_set_remove(ptr noundef nonnull %6, ptr noundef nonnull %4) #12
  %.not = icmp ne i32 %7, 0
  %. = zext i1 %.not to i32
  call void @llvm.lifetime.end.p0(i64 16, ptr nonnull %4) #12
  ret i32 %.
}